target datalayout = "e-m:e-p270:32:32-p271:32:32-p272:64:64-i64:64-i128:128-f80:128-n8:16:32:64-S128"
target triple = "x86_64-pc-linux-gnu"

; Function Attrs: nounwind uwtable
define i32 @ttULONG(ptr noundef %0) #0 {
  %2 = alloca ptr, align 8
  store ptr %0, ptr %2, align 8, !tbaa !25
  %3 = load ptr, ptr %2, align 8, !tbaa !25
  %4 = getelementptr inbounds i8, ptr %3, i64 0
  %5 = load i8, ptr %4, align 1, !tbaa !13
  %6 = zext i8 %5 to i32
  %7 = shl i32 %6, 24
  %8 = load ptr, ptr %2, align 8, !tbaa !25
  %9 = getelementptr inbounds i8, ptr %8, i64 1
  %10 = load i8, ptr %9, align 1, !tbaa !13
  %11 = zext i8 %10 to i32
  %12 = shl i32 %11, 16
  %13 = add nsw i32 %7, %12
  %14 = load ptr, ptr %2, align 8, !tbaa !25
  %15 = getelementptr inbounds i8, ptr %14, i64 2
  %16 = load i8, ptr %15, align 1, !tbaa !13
  %17 = zext i8 %16 to i32
  %18 = shl i32 %17, 8
  %19 = add nsw i32 %13, %18
  %20 = load ptr, ptr %2, align 8, !tbaa !25
  %21 = getelementptr inbounds i8, ptr %20, i64 3
  %22 = load i8, ptr %21, align 1, !tbaa !13
  %23 = zext i8 %22 to i32
  %24 = add nsw i32 %19, %23
  ret i32 %24
}